target datalayout = "e-m:e-p270:32:32-p271:32:32-p272:64:64-i64:64-i128:128-f80:128-n8:16:32:64-S128"
target triple = "x86_64-pc-linux-gnu"

%"class.llvm::RNSuccIterator" = type { %"class.llvm::PointerIntPair.204", %"class.llvm::SuccIterator" }
%"class.llvm::PointerIntPair.204" = type { %"struct.llvm::detail::PunnedPointer.205" }
%"struct.llvm::detail::PunnedPointer.205" = type { [8 x i8] }
%"class.llvm::SuccIterator" = type <{ ptr, i32, [4 x i8] }>
%"struct.std::pair.215" = type { ptr, ptr }
%"class.llvm::filter_iterator_base" = type { %"class.llvm::iterator_adaptor_base", %"class.(anonymous namespace)::SubGraphTraits::WrappedSuccIterator", ptr }
%"class.llvm::iterator_adaptor_base" = type { %"class.(anonymous namespace)::SubGraphTraits::WrappedSuccIterator" }
%"class.(anonymous namespace)::SubGraphTraits::WrappedSuccIterator" = type { %"class.llvm::iterator_adaptor_base.250", ptr }
%"class.llvm::iterator_adaptor_base.250" = type { %"class.llvm::RNSuccIterator" }

; Function Attrs: mustprogress nounwind uwtable
define linkonce_odr hidden noundef ptr @_ZN4llvm21PointerLikeTypeTraitsIPNS_10RegionNodeEE18getFromVoidPointerEPv(ptr noundef %0) #1 comdat align 2 {
  %2 = alloca ptr, align 8
  store ptr %0, ptr %2, align 8
  %3 = load ptr, ptr %2, align 8
  ret ptr %3
}

; Function Attrs: mustprogress nounwind uwtable
define linkonce_odr hidden noundef ptr @_ZN4llvm18PointerIntPairInfoIPNS_10RegionNodeELj2ENS_21PointerLikeTypeTraitsIS2_EEE10getPointerEl(i64 noundef %0) #1 comdat align 2 {
  %2 = alloca i64, align 8
  store i64 %0, ptr %2, align 8
  %3 = load i64, ptr %2, align 8
  %4 = and i64 %3, -8
  %5 = inttoptr i64 %4 to ptr
  %6 = call noundef ptr @_ZN4llvm21PointerLikeTypeTraitsIPNS_10RegionNodeEE18getFromVoidPointerEPv(ptr noundef %5)
  ret ptr %6
}

; Function Attrs: mustprogress nounwind uwtable
define linkonce_odr hidden noundef i64 @_ZNK4llvm6detail13PunnedPointerIPNS_10RegionNodeEE5asIntEv(ptr noundef nonnull align 8 dereferenceable(8) %0) #1 comdat align 2 {
  %2 = alloca ptr, align 8
  %3 = alloca i64, align 8
  store ptr %0, ptr %2, align 8
  %4 = load ptr, ptr %2, align 8
  store i64 0, ptr %3, align 8
  %5 = getelementptr inbounds nuw %"struct.llvm::detail::PunnedPointer.205", ptr %4, i32 0, i32 0
  %6 = getelementptr inbounds [8 x i8], ptr %5, i64 0, i64 0
  call void @llvm.memcpy.p0.p0.i64(ptr align 8 %3, ptr align 8 %6, i64 8, i1 false)
  %7 = load i64, ptr %3, align 8
  ret i64 %7
}

; Function Attrs: mustprogress nounwind uwtable
define linkonce_odr hidden noundef ptr @_ZNK4llvm14PointerIntPairIPNS_10RegionNodeELj2ENS_14RNSuccIteratorIS2_NS_10BasicBlockENS_6RegionEE6ItModeENS_21PointerLikeTypeTraitsIS2_EENS_18PointerIntPairInfoIS2_Lj2ES9_EEE10getPointerEv(ptr noundef nonnull align 8 dereferenceable(8) %0) #1 comdat align 2 {
  %2 = alloca ptr, align 8
  store ptr %0, ptr %2, align 8
  %3 = load ptr, ptr %2, align 8
  %4 = getelementptr inbounds nuw %"class.llvm::PointerIntPair.204", ptr %3, i32 0, i32 0
  %5 = call noundef i64 @_ZNK4llvm6detail13PunnedPointerIPNS_10RegionNodeEEcvlEv(ptr noundef nonnull align 8 dereferenceable(8) %4)
  %6 = call noundef ptr @_ZN4llvm18PointerIntPairInfoIPNS_10RegionNodeELj2ENS_21PointerLikeTypeTraitsIS2_EEE10getPointerEl(i64 noundef %5)
  ret ptr %6
}

; Function Attrs: mustprogress nounwind uwtable
define linkonce_odr hidden noundef i64 @_ZN4llvm18PointerIntPairInfoIPNS_10RegionNodeELj2ENS_21PointerLikeTypeTraitsIS2_EEE6getIntEl(i64 noundef %0) #1 comdat align 2 {
  %2 = alloca i64, align 8
  store i64 %0, ptr %2, align 8
  %3 = load i64, ptr %2, align 8
  %4 = ashr i64 %3, 1
  %5 = and i64 %4, 3
  ret i64 %5
}

; Function Attrs: mustprogress nounwind uwtable
define linkonce_odr hidden noundef i64 @_ZNK4llvm6detail13PunnedPointerIPNS_10RegionNodeEEcvlEv(ptr noundef nonnull align 8 dereferenceable(8) %0) #1 comdat align 2 {
  %2 = alloca ptr, align 8
  store ptr %0, ptr %2, align 8
  %3 = load ptr, ptr %2, align 8
  %4 = call noundef i64 @_ZNK4llvm6detail13PunnedPointerIPNS_10RegionNodeEE5asIntEv(ptr noundef nonnull align 8 dereferenceable(8) %3)
  ret i64 %4
}

; Function Attrs: mustprogress nounwind uwtable
define linkonce_odr hidden noundef ptr @_ZNK4llvm14RegionNodeBaseINS_12RegionTraitsINS_8FunctionEEEE9getNodeAsINS_6RegionEEEPT_v(ptr noundef nonnull align 8 dereferenceable(16) %0) #1 comdat align 2 {
  %2 = alloca ptr, align 8
  %3 = alloca ptr, align 8
  store ptr %0, ptr %2, align 8
  %4 = load ptr, ptr %2, align 8
  store ptr %4, ptr %3, align 8
  %5 = load ptr, ptr %3, align 8
  ret ptr %5
}

; Function Attrs: mustprogress nounwind uwtable
define linkonce_odr hidden noundef ptr @_ZNK4llvm14RNSuccIteratorIPNS_10RegionNodeENS_10BasicBlockENS_6RegionEE7getNodeEv(ptr noundef nonnull align 8 dereferenceable(24) %0) #1 comdat align 2 {
  %2 = alloca ptr, align 8
  store ptr %0, ptr %2, align 8
  %3 = load ptr, ptr %2, align 8
  %4 = getelementptr inbounds nuw %"class.llvm::RNSuccIterator", ptr %3, i32 0, i32 0
  %5 = call noundef ptr @_ZNK4llvm14PointerIntPairIPNS_10RegionNodeELj2ENS_14RNSuccIteratorIS2_NS_10BasicBlockENS_6RegionEE6ItModeENS_21PointerLikeTypeTraitsIS2_EENS_18PointerIntPairInfoIS2_Lj2ES9_EEE10getPointerEv(ptr noundef nonnull align 8 dereferenceable(8) %4)
  ret ptr %5
}

; Function Attrs: mustprogress nounwind uwtable
define linkonce_odr hidden noundef zeroext i1 @_ZNK4llvm12SuccIteratorINS_11InstructionENS_10BasicBlockEEeqERKS3_(ptr noundef nonnull align 8 dereferenceable(12) %0, ptr noundef nonnull align 8 dereferenceable(12) %1) #1 comdat align 2 {
  %3 = alloca ptr, align 8
  %4 = alloca ptr, align 8
  store ptr %0, ptr %3, align 8
  store ptr %1, ptr %4, align 8
  %5 = load ptr, ptr %3, align 8
  %6 = getelementptr inbounds nuw %"class.llvm::SuccIterator", ptr %5, i32 0, i32 1
  %7 = load i32, ptr %6, align 8
  %8 = load ptr, ptr %4, align 8
  %9 = getelementptr inbounds nuw %"class.llvm::SuccIterator", ptr %8, i32 0, i32 1
  %10 = load i32, ptr %9, align 8
  %11 = icmp eq i32 %7, %10
  ret i1 %11
}

; Function Attrs: mustprogress nounwind uwtable
define linkonce_odr hidden noundef i32 @_ZNK4llvm14PointerIntPairIPNS_10RegionNodeELj2ENS_14RNSuccIteratorIS2_NS_10BasicBlockENS_6RegionEE6ItModeENS_21PointerLikeTypeTraitsIS2_EENS_18PointerIntPairInfoIS2_Lj2ES9_EEE6getIntEv(ptr noundef nonnull align 8 dereferenceable(8) %0) #1 comdat align 2 {
  %2 = alloca ptr, align 8
  store ptr %0, ptr %2, align 8
  %3 = load ptr, ptr %2, align 8
  %4 = getelementptr inbounds nuw %"class.llvm::PointerIntPair.204", ptr %3, i32 0, i32 0
  %5 = call noundef i64 @_ZNK4llvm6detail13PunnedPointerIPNS_10RegionNodeEEcvlEv(ptr noundef nonnull align 8 dereferenceable(8) %4)
  %6 = call noundef i64 @_ZN4llvm18PointerIntPairInfoIPNS_10RegionNodeELj2ENS_21PointerLikeTypeTraitsIS2_EEE6getIntEl(i64 noundef %5)
  %7 = trunc i64 %6 to i32
  ret i32 %7
}

; Function Attrs: mustprogress nounwind uwtable
define linkonce_odr hidden noundef ptr @_ZNK4llvm14RNSuccIteratorIPNS_10RegionNodeENS_10BasicBlockENS_6RegionEE8getISuccEPS3_(ptr noundef nonnull align 8 dereferenceable(24) %0, ptr noundef %1) #1 comdat align 2 {
  %3 = alloca ptr, align 8
  %4 = alloca ptr, align 8
  %5 = alloca ptr, align 8
  store ptr %0, ptr %3, align 8
  store ptr %1, ptr %4, align 8
  %6 = load ptr, ptr %3, align 8
  %7 = call noundef ptr @_ZNK4llvm14RNSuccIteratorIPNS_10RegionNodeENS_10BasicBlockENS_6RegionEE7getNodeEv(ptr noundef nonnull align 8 dereferenceable(24) %6)
  %8 = call noundef ptr @_ZNK4llvm14RegionNodeBaseINS_12RegionTraitsINS_8FunctionEEEE9getParentEv(ptr noundef nonnull align 8 dereferenceable(16) %7)
  %9 = load ptr, ptr %4, align 8
  %10 = call noundef ptr @_ZNK4llvm10RegionBaseINS_12RegionTraitsINS_8FunctionEEEE7getNodeEPNS_10BasicBlockE(ptr noundef nonnull align 8 dereferenceable(112) %8, ptr noundef %9)
  store ptr %10, ptr %5, align 8
  %11 = load ptr, ptr %5, align 8
  ret ptr %11
}

; Function Attrs: mustprogress nounwind uwtable
define linkonce_odr hidden noundef ptr @_ZNK4llvm12SuccIteratorINS_11InstructionENS_10BasicBlockEEdeEv(ptr noundef nonnull align 8 dereferenceable(12) %0) #1 comdat align 2 {
  %2 = alloca ptr, align 8
  store ptr %0, ptr %2, align 8
  %3 = load ptr, ptr %2, align 8
  %4 = getelementptr inbounds nuw %"class.llvm::SuccIterator", ptr %3, i32 0, i32 0
  %5 = load ptr, ptr %4, align 8
  %6 = getelementptr inbounds nuw %"class.llvm::SuccIterator", ptr %3, i32 0, i32 1
  %7 = load i32, ptr %6, align 8
  %8 = call noundef ptr @_ZNK4llvm11Instruction12getSuccessorEj(ptr noundef nonnull align 8 dereferenceable(72) %5, i32 noundef %7) #17
  ret ptr %8
}

; Function Attrs: mustprogress nounwind uwtable
define linkonce_odr hidden noundef ptr @_ZNK4llvm14RNSuccIteratorIPNS_10RegionNodeENS_10BasicBlockENS_6RegionEE13getRegionSuccEv(ptr noundef nonnull align 8 dereferenceable(24) %0) #1 comdat align 2 {
  %2 = alloca ptr, align 8
  store ptr %0, ptr %2, align 8
  %3 = load ptr, ptr %2, align 8
  %4 = call noundef ptr @_ZNK4llvm14RNSuccIteratorIPNS_10RegionNodeENS_10BasicBlockENS_6RegionEE7getNodeEv(ptr noundef nonnull align 8 dereferenceable(24) %3)
  %5 = call noundef ptr @_ZNK4llvm14RegionNodeBaseINS_12RegionTraitsINS_8FunctionEEEE9getNodeAsINS_6RegionEEEPT_v(ptr noundef nonnull align 8 dereferenceable(16) %4)
  %6 = call noundef ptr @_ZNK4llvm10RegionBaseINS_12RegionTraitsINS_8FunctionEEEE7getExitEv(ptr noundef nonnull align 8 dereferenceable(112) %5)
  ret ptr %6
}

; Function Attrs: mustprogress nounwind uwtable
define linkonce_odr hidden noundef zeroext i1 @_ZNK4llvm14RNSuccIteratorIPNS_10RegionNodeENS_10BasicBlockENS_6RegionEE12isRegionModeEv(ptr noundef nonnull align 8 dereferenceable(24) %0) #1 comdat align 2 {
  %2 = alloca ptr, align 8
  store ptr %0, ptr %2, align 8
  %3 = load ptr, ptr %2, align 8
  %4 = getelementptr inbounds nuw %"class.llvm::RNSuccIterator", ptr %3, i32 0, i32 0
  %5 = call noundef i32 @_ZNK4llvm14PointerIntPairIPNS_10RegionNodeELj2ENS_14RNSuccIteratorIS2_NS_10BasicBlockENS_6RegionEE6ItModeENS_21PointerLikeTypeTraitsIS2_EENS_18PointerIntPairInfoIS2_Lj2ES9_EEE6getIntEv(ptr noundef nonnull align 8 dereferenceable(8) %4)
  %6 = icmp ne i32 %5, 0
  ret i1 %6
}

; Function Attrs: mustprogress nounwind uwtable
define linkonce_odr hidden noundef zeroext i1 @_ZNK4llvm14RNSuccIteratorIPNS_10RegionNodeENS_10BasicBlockENS_6RegionEEeqERKS5_(ptr noundef nonnull align 8 dereferenceable(24) %0, ptr noundef nonnull align 8 dereferenceable(24) %1) #1 comdat align 2 {
  %3 = alloca i1, align 1
  %4 = alloca ptr, align 8
  %5 = alloca ptr, align 8
  store ptr %0, ptr %4, align 8
  store ptr %1, ptr %5, align 8
  %6 = load ptr, ptr %4, align 8
  %7 = call noundef zeroext i1 @_ZNK4llvm14RNSuccIteratorIPNS_10RegionNodeENS_10BasicBlockENS_6RegionEE12isRegionModeEv(ptr noundef nonnull align 8 dereferenceable(24) %6)
  br i1 %7, label %8, label %15

8:                                                ; preds = %2
  %9 = getelementptr inbounds nuw %"class.llvm::RNSuccIterator", ptr %6, i32 0, i32 0
  %10 = call noundef i32 @_ZNK4llvm14PointerIntPairIPNS_10RegionNodeELj2ENS_14RNSuccIteratorIS2_NS_10BasicBlockENS_6RegionEE6ItModeENS_21PointerLikeTypeTraitsIS2_EENS_18PointerIntPairInfoIS2_Lj2ES9_EEE6getIntEv(ptr noundef nonnull align 8 dereferenceable(8) %9)
  %11 = load ptr, ptr %5, align 8
  %12 = getelementptr inbounds nuw %"class.llvm::RNSuccIterator", ptr %11, i32 0, i32 0
  %13 = call noundef i32 @_ZNK4llvm14PointerIntPairIPNS_10RegionNodeELj2ENS_14RNSuccIteratorIS2_NS_10BasicBlockENS_6RegionEE6ItModeENS_21PointerLikeTypeTraitsIS2_EENS_18PointerIntPairInfoIS2_Lj2ES9_EEE6getIntEv(ptr noundef nonnull align 8 dereferenceable(8) %12)
  %14 = icmp eq i32 %10, %13
  store i1 %14, ptr %3, align 1
  br label %20

15:                                               ; preds = %2
  %16 = getelementptr inbounds nuw %"class.llvm::RNSuccIterator", ptr %6, i32 0, i32 1
  %17 = load ptr, ptr %5, align 8
  %18 = getelementptr inbounds nuw %"class.llvm::RNSuccIterator", ptr %17, i32 0, i32 1
  %19 = call noundef zeroext i1 @_ZNK4llvm12SuccIteratorINS_11InstructionENS_10BasicBlockEEeqERKS3_(ptr noundef nonnull align 8 dereferenceable(12) %16, ptr noundef nonnull align 8 dereferenceable(12) %18)
  store i1 %19, ptr %3, align 1
  br label %20

20:                                               ; preds = %15, %8
  %21 = load i1, ptr %3, align 1
  ret i1 %21
}

; Function Attrs: mustprogress nounwind uwtable
define internal noundef nonnull align 8 dereferenceable(32) ptr @_ZN4llvm21iterator_adaptor_baseIN12_GLOBAL__N_114SubGraphTraits19WrappedSuccIteratorENS_14RNSuccIteratorIPNS_10RegionNodeENS_10BasicBlockENS_6RegionEEESt20forward_iterator_tagSt4pairIS6_PNS_13SmallDenseSetIS6_Lj4ENS_12DenseMapInfoIS6_vEEEEElPSH_SH_EppEv(ptr noundef nonnull align 8 dereferenceable(24) %0) #1 align 2 {
  %2 = alloca ptr, align 8
  store ptr %0, ptr %2, align 8
  %3 = load ptr, ptr %2, align 8
  %4 = getelementptr inbounds nuw %"class.llvm::iterator_adaptor_base.250", ptr %3, i32 0, i32 0
  %5 = call noundef nonnull align 8 dereferenceable(24) ptr @_ZN4llvm14RNSuccIteratorIPNS_10RegionNodeENS_10BasicBlockENS_6RegionEEppEv(ptr noundef nonnull align 8 dereferenceable(24) %4)
  ret ptr %3
}

; Function Attrs: mustprogress nounwind uwtable
define linkonce_odr hidden void @_ZNSt4pairIPN4llvm10RegionNodeEPNS0_13SmallDenseSetIS2_Lj4ENS0_12DenseMapInfoIS2_vEEEEEC2IS2_RKS7_TnNSt9enable_ifIXaaclsr5_PCCPE22_MoveConstructiblePairIT_T0_EEclsr5_PCCPE30_ImplicitlyMoveConvertiblePairISD_SE_EEEbE4typeELb1EEEOSD_OSE_(ptr noundef nonnull align 8 dereferenceable(16) %0, ptr noundef nonnull align 8 dereferenceable(8) %1, ptr noundef nonnull align 8 dereferenceable(8) %2) unnamed_addr #1 comdat align 2 {
  %4 = alloca ptr, align 8
  %5 = alloca ptr, align 8
  %6 = alloca ptr, align 8
  store ptr %0, ptr %4, align 8
  store ptr %1, ptr %5, align 8
  store ptr %2, ptr %6, align 8
  %7 = load ptr, ptr %4, align 8
  %8 = getelementptr inbounds nuw %"struct.std::pair.215", ptr %7, i32 0, i32 0
  %9 = load ptr, ptr %5, align 8
  %10 = load ptr, ptr %9, align 8
  store ptr %10, ptr %8, align 8
  %11 = getelementptr inbounds nuw %"struct.std::pair.215", ptr %7, i32 0, i32 1
  %12 = load ptr, ptr %6, align 8
  %13 = load ptr, ptr %12, align 8
  store ptr %13, ptr %11, align 8
  ret void
}

; Function Attrs: mustprogress nounwind uwtable
define linkonce_odr hidden noundef ptr @_ZNK4llvm14RNSuccIteratorIPNS_10RegionNodeENS_10BasicBlockENS_6RegionEEdeEv(ptr noundef nonnull align 8 dereferenceable(24) %0) #1 comdat align 2 {
  %2 = alloca ptr, align 8
  %3 = alloca ptr, align 8
  store ptr %0, ptr %2, align 8
  %4 = load ptr, ptr %2, align 8
  %5 = call noundef zeroext i1 @_ZNK4llvm14RNSuccIteratorIPNS_10RegionNodeENS_10BasicBlockENS_6RegionEE12isRegionModeEv(ptr noundef nonnull align 8 dereferenceable(24) %4)
  br i1 %5, label %6, label %8

6:                                                ; preds = %1
  %7 = call noundef ptr @_ZNK4llvm14RNSuccIteratorIPNS_10RegionNodeENS_10BasicBlockENS_6RegionEE13getRegionSuccEv(ptr noundef nonnull align 8 dereferenceable(24) %4)
  br label %11

8:                                                ; preds = %1
  %9 = getelementptr inbounds nuw %"class.llvm::RNSuccIterator", ptr %4, i32 0, i32 1
  %10 = call noundef ptr @_ZNK4llvm12SuccIteratorINS_11InstructionENS_10BasicBlockEEdeEv(ptr noundef nonnull align 8 dereferenceable(12) %9)
  br label %11

11:                                               ; preds = %8, %6
  %12 = phi ptr [ %7, %6 ], [ %10, %8 ]
  store ptr %12, ptr %3, align 8
  %13 = load ptr, ptr %3, align 8
  %14 = call noundef ptr @_ZNK4llvm14RNSuccIteratorIPNS_10RegionNodeENS_10BasicBlockENS_6RegionEE8getISuccEPS3_(ptr noundef nonnull align 8 dereferenceable(24) %4, ptr noundef %13)
  ret ptr %14
}

; Function Attrs: mustprogress nounwind uwtable
define internal noundef zeroext i1 @_ZN4llvmeqERKNS_21iterator_adaptor_baseIN12_GLOBAL__N_114SubGraphTraits19WrappedSuccIteratorENS_14RNSuccIteratorIPNS_10RegionNodeENS_10BasicBlockENS_6RegionEEESt20forward_iterator_tagSt4pairIS6_PNS_13SmallDenseSetIS6_Lj4ENS_12DenseMapInfoIS6_vEEEEElPSH_SH_EESL_(ptr noundef nonnull align 8 dereferenceable(24) %0, ptr noundef nonnull align 8 dereferenceable(24) %1) #1 {
  %3 = alloca ptr, align 8
  %4 = alloca ptr, align 8
  store ptr %0, ptr %3, align 8
  store ptr %1, ptr %4, align 8
  %5 = load ptr, ptr %3, align 8
  %6 = getelementptr inbounds nuw %"class.llvm::iterator_adaptor_base.250", ptr %5, i32 0, i32 0
  %7 = load ptr, ptr %4, align 8
  %8 = getelementptr inbounds nuw %"class.llvm::iterator_adaptor_base.250", ptr %7, i32 0, i32 0
  %9 = call noundef zeroext i1 @_ZNK4llvm14RNSuccIteratorIPNS_10RegionNodeENS_10BasicBlockENS_6RegionEEeqERKS5_(ptr noundef nonnull align 8 dereferenceable(24) %6, ptr noundef nonnull align 8 dereferenceable(24) %8)
  ret i1 %9
}

; Function Attrs: mustprogress nounwind uwtable
define internal noundef nonnull align 8 dereferenceable(72) ptr @_ZN4llvm21iterator_adaptor_baseINS_20filter_iterator_baseIN12_GLOBAL__N_114SubGraphTraits19WrappedSuccIteratorEPFbRKSt4pairIPNS_10RegionNodeEPNS_13SmallDenseSetIS7_Lj4ENS_12DenseMapInfoIS7_vEEEEEESt20forward_iterator_tagEES4_SI_SD_lPSD_SD_EppEv(ptr noundef nonnull align 8 dereferenceable(32) %0) #1 align 2 {
  %2 = alloca ptr, align 8
  store ptr %0, ptr %2, align 8
  %3 = load ptr, ptr %2, align 8
  %4 = getelementptr inbounds nuw %"class.llvm::iterator_adaptor_base", ptr %3, i32 0, i32 0
  %5 = call noundef nonnull align 8 dereferenceable(32) ptr @_ZN4llvm21iterator_adaptor_baseIN12_GLOBAL__N_114SubGraphTraits19WrappedSuccIteratorENS_14RNSuccIteratorIPNS_10RegionNodeENS_10BasicBlockENS_6RegionEEESt20forward_iterator_tagSt4pairIS6_PNS_13SmallDenseSetIS6_Lj4ENS_12DenseMapInfoIS6_vEEEEElPSH_SH_EppEv(ptr noundef nonnull align 8 dereferenceable(24) %4)
  ret ptr %3
}

; Function Attrs: mustprogress nounwind uwtable
define internal { ptr, ptr } @_ZNK12_GLOBAL__N_114SubGraphTraits19WrappedSuccIteratordeEv(ptr noundef nonnull align 8 dereferenceable(32) %0) #1 align 2 {
  %2 = alloca %"struct.std::pair.215", align 8
  %3 = alloca ptr, align 8
  %4 = alloca ptr, align 8
  store ptr %0, ptr %3, align 8
  %5 = load ptr, ptr %3, align 8
  %6 = getelementptr inbounds nuw %"class.llvm::iterator_adaptor_base.250", ptr %5, i32 0, i32 0
  %7 = call noundef ptr @_ZNK4llvm14RNSuccIteratorIPNS_10RegionNodeENS_10BasicBlockENS_6RegionEEdeEv(ptr noundef nonnull align 8 dereferenceable(24) %6)
  store ptr %7, ptr %4, align 8
  %8 = getelementptr inbounds nuw %"class.(anonymous namespace)::SubGraphTraits::WrappedSuccIterator", ptr %5, i32 0, i32 1
  call void @_ZNSt4pairIPN4llvm10RegionNodeEPNS0_13SmallDenseSetIS2_Lj4ENS0_12DenseMapInfoIS2_vEEEEEC2IS2_RKS7_TnNSt9enable_ifIXaaclsr5_PCCPE22_MoveConstructiblePairIT_T0_EEclsr5_PCCPE30_ImplicitlyMoveConvertiblePairISD_SE_EEEbE4typeELb1EEEOSD_OSE_(ptr noundef nonnull align 8 dereferenceable(16) %2, ptr noundef nonnull align 8 dereferenceable(8) %4, ptr noundef nonnull align 8 dereferenceable(8) %8)
  %9 = load { ptr, ptr }, ptr %2, align 8
  ret { ptr, ptr } %9
}

; Function Attrs: mustprogress nounwind uwtable
define internal noundef zeroext i1 @_ZNK4llvm20iterator_facade_baseIN12_GLOBAL__N_114SubGraphTraits19WrappedSuccIteratorESt20forward_iterator_tagSt4pairIPNS_10RegionNodeEPNS_13SmallDenseSetIS7_Lj4ENS_12DenseMapInfoIS7_vEEEEElPSD_SD_EneERKS3_(ptr noundef nonnull align 1 dereferenceable(1) %0, ptr noundef nonnull align 8 dereferenceable(32) %1) #1 align 2 {
  %3 = alloca ptr, align 8
  %4 = alloca ptr, align 8
  store ptr %0, ptr %3, align 8
  store ptr %1, ptr %4, align 8
  %5 = load ptr, ptr %3, align 8
  %6 = load ptr, ptr %4, align 8
  %7 = call noundef zeroext i1 @_ZN4llvmeqERKNS_21iterator_adaptor_baseIN12_GLOBAL__N_114SubGraphTraits19WrappedSuccIteratorENS_14RNSuccIteratorIPNS_10RegionNodeENS_10BasicBlockENS_6RegionEEESt20forward_iterator_tagSt4pairIS6_PNS_13SmallDenseSetIS6_Lj4ENS_12DenseMapInfoIS6_vEEEEElPSH_SH_EESL_(ptr noundef nonnull align 8 dereferenceable(24) %5, ptr noundef nonnull align 8 dereferenceable(24) %6)
  %8 = xor i1 %7, true
  ret i1 %8
}

; Function Attrs: mustprogress nounwind uwtable
define internal void @_ZN4llvm20filter_iterator_baseIN12_GLOBAL__N_114SubGraphTraits19WrappedSuccIteratorEPFbRKSt4pairIPNS_10RegionNodeEPNS_13SmallDenseSetIS6_Lj4ENS_12DenseMapInfoIS6_vEEEEEESt20forward_iterator_tagE13findNextValidEv(ptr noundef nonnull align 8 dereferenceable(72) %0) #1 align 2 {
  %2 = alloca ptr, align 8
  %3 = alloca %"struct.std::pair.215", align 8
  store ptr %0, ptr %2, align 8
  %4 = load ptr, ptr %2, align 8
  br label %5

5:                                                ; preds = %22, %1
  %6 = getelementptr inbounds nuw %"class.llvm::iterator_adaptor_base", ptr %4, i32 0, i32 0
  %7 = getelementptr inbounds nuw %"class.llvm::filter_iterator_base", ptr %4, i32 0, i32 1
  %8 = call noundef zeroext i1 @_ZNK4llvm20iterator_facade_baseIN12_GLOBAL__N_114SubGraphTraits19WrappedSuccIteratorESt20forward_iterator_tagSt4pairIPNS_10RegionNodeEPNS_13SmallDenseSetIS7_Lj4ENS_12DenseMapInfoIS7_vEEEEElPSD_SD_EneERKS3_(ptr noundef nonnull align 1 dereferenceable(1) %6, ptr noundef nonnull align 8 dereferenceable(32) %7)
  br i1 %8, label %9, label %20

9:                                                ; preds = %5
  %10 = getelementptr inbounds nuw %"class.llvm::filter_iterator_base", ptr %4, i32 0, i32 2
  %11 = load ptr, ptr %10, align 8
  %12 = getelementptr inbounds nuw %"class.llvm::iterator_adaptor_base", ptr %4, i32 0, i32 0
  %13 = call { ptr, ptr } @_ZNK12_GLOBAL__N_114SubGraphTraits19WrappedSuccIteratordeEv(ptr noundef nonnull align 8 dereferenceable(32) %12)
  %14 = getelementptr inbounds nuw { ptr, ptr }, ptr %3, i32 0, i32 0
  %15 = extractvalue { ptr, ptr } %13, 0
  store ptr %15, ptr %14, align 8
  %16 = getelementptr inbounds nuw { ptr, ptr }, ptr %3, i32 0, i32 1
  %17 = extractvalue { ptr, ptr } %13, 1
  store ptr %17, ptr %16, align 8
  %18 = call noundef zeroext i1 %11(ptr noundef nonnull align 8 dereferenceable(16) %3)
  %19 = xor i1 %18, true
  br label %20

20:                                               ; preds = %9, %5
  %21 = phi i1 [ false, %5 ], [ %19, %9 ]
  br i1 %21, label %22, label %24

22:                                               ; preds = %20
  %23 = call noundef nonnull align 8 dereferenceable(72) ptr @_ZN4llvm21iterator_adaptor_baseINS_20filter_iterator_baseIN12_GLOBAL__N_114SubGraphTraits19WrappedSuccIteratorEPFbRKSt4pairIPNS_10RegionNodeEPNS_13SmallDenseSetIS7_Lj4ENS_12DenseMapInfoIS7_vEEEEEESt20forward_iterator_tagEES4_SI_SD_lPSD_SD_EppEv(ptr noundef nonnull align 8 dereferenceable(32) %4)
  br label %5, !llvm.loop !47

24:                                               ; preds = %20
  ret void
}