; Function Attrs: mustprogress nounwind uwtable
define internal fastcc void @_ZN4llvm20filter_iterator_baseIN12_GLOBAL__N_114SubGraphTraits19WrappedSuccIteratorEPFbRKSt4pairIPNS_10RegionNodeEPNS_13SmallDenseSetIS6_Lj4ENS_12DenseMapInfoIS6_vEEEEEESt20forward_iterator_tagE13findNextValidEv(ptr noundef nonnull align 8 dereferenceable(72) %0) unnamed_addr #0 align 2 {
  %2 = alloca %"struct.std::pair.215", align 8
  %3 = getelementptr inbounds nuw i8, ptr %0, i64 32
  %4 = getelementptr inbounds i8, ptr %0, i64 16
  %5 = getelementptr inbounds i8, ptr %0, i64 48
  %.val4 = load i64, ptr %0, align 8
  %.val15 = load i32, ptr %4, align 8
  %.val26 = load i64, ptr %3, align 8
  %.val37 = load i32, ptr %5, align 8
  %6 = and i64 %.val4, 6
  %.not.i.i.i8 = icmp eq i64 %6, 0
  %7 = xor i64 %.val26, %.val4
  %8 = and i64 %7, 6
  %9 = icmp ne i64 %8, 0
  %10 = icmp ne i32 %.val15, %.val37
  %.0.i.i.i9 = select i1 %.not.i.i.i8, i1 %10, i1 %9
  br i1 %.0.i.i.i9, label %.lr.ph, label %.critedge

.lr.ph:                                           ; preds = %1
  %11 = getelementptr inbounds nuw i8, ptr %0, i64 64
  %12 = getelementptr inbounds nuw i8, ptr %0, i64 8
  %13 = getelementptr inbounds nuw i8, ptr %0, i64 24
  %14 = getelementptr inbounds nuw i8, ptr %2, i64 8
  br label %15

15:                                               ; preds = %.lr.ph, %31
  %.not.i.i.i12 = phi i1 [ %.not.i.i.i8, %.lr.ph ], [ %.not.i.i.i, %31 ]
  %.val111 = phi i32 [ %.val15, %.lr.ph ], [ %.val1, %31 ]
  %.val10 = phi i64 [ %.val4, %.lr.ph ], [ %.val, %31 ]
  %16 = load ptr, ptr %11, align 8
  br i1 %.not.i.i.i12, label %21, label %17

17:                                               ; preds = %15
  %18 = and i64 %.val10, -8
  %19 = inttoptr i64 %18 to ptr
  %20 = call noundef ptr @_ZNK4llvm10RegionBaseINS_12RegionTraitsINS_8FunctionEEEE7getExitEv(ptr noundef nonnull align 8 dereferenceable(112) %19) #21
  %.0.copyload.i.i.i.i.i2.pre.i.i = load i64, ptr %0, align 8
  br label %_ZNK12_GLOBAL__N_114SubGraphTraits19WrappedSuccIteratordeEv.exit

21:                                               ; preds = %15
  %22 = load ptr, ptr %12, align 8
  %23 = call noundef ptr @_ZNK4llvm11Instruction12getSuccessorEj(ptr noundef nonnull align 8 dereferenceable(72) %22, i32 noundef %.val111) #25
  br label %_ZNK12_GLOBAL__N_114SubGraphTraits19WrappedSuccIteratordeEv.exit

_ZNK12_GLOBAL__N_114SubGraphTraits19WrappedSuccIteratordeEv.exit: ; preds = %17, %21
  %.0.copyload.i.i.i.i.i2.i.i = phi i64 [ %.0.copyload.i.i.i.i.i2.pre.i.i, %17 ], [ %.val10, %21 ]
  %24 = phi ptr [ %20, %17 ], [ %23, %21 ]
  %25 = and i64 %.0.copyload.i.i.i.i.i2.i.i, -8
  %26 = inttoptr i64 %25 to ptr
  %27 = call noundef ptr @_ZNK4llvm14RegionNodeBaseINS_12RegionTraitsINS_8FunctionEEEE9getParentEv(ptr noundef nonnull align 8 dereferenceable(16) %26) #21
  %28 = call noundef ptr @_ZNK4llvm10RegionBaseINS_12RegionTraitsINS_8FunctionEEEE7getNodeEPNS_10BasicBlockE(ptr noundef nonnull align 8 dereferenceable(112) %27, ptr noundef %24) #21
  %29 = load ptr, ptr %13, align 8
  store ptr %28, ptr %2, align 8
  store ptr %29, ptr %14, align 8
  %30 = call noundef zeroext i1 %16(ptr noundef nonnull align 8 dereferenceable(16) %2) #21
  br i1 %30, label %.critedge, label %31

31:                                               ; preds = %_ZNK12_GLOBAL__N_114SubGraphTraits19WrappedSuccIteratordeEv.exit
  %32 = call noundef nonnull align 8 dereferenceable(24) ptr @_ZN4llvm14RNSuccIteratorIPNS_10RegionNodeENS_10BasicBlockENS_6RegionEEppEv(ptr noundef nonnull align 8 dereferenceable(24) %0)
  %.val = load i64, ptr %0, align 8
  %.val1 = load i32, ptr %4, align 8
  %.val2 = load i64, ptr %3, align 8
  %.val3 = load i32, ptr %5, align 8
  %33 = and i64 %.val, 6
  %.not.i.i.i = icmp eq i64 %33, 0
  %34 = xor i64 %.val2, %.val
  %35 = and i64 %34, 6
  %36 = icmp ne i64 %35, 0
  %37 = icmp ne i32 %.val1, %.val3
  %.0.i.i.i = select i1 %.not.i.i.i, i1 %37, i1 %36
  br i1 %.0.i.i.i, label %15, label %.critedge, !llvm.loop !196

.critedge:                                        ; preds = %_ZNK12_GLOBAL__N_114SubGraphTraits19WrappedSuccIteratordeEv.exit, %31, %1
  ret void
}